; Function Attrs: mustprogress nofree nounwind willreturn uwtable
define range(i32 -32, 1) i32 @pmix_bfrops_base_copy_pstats(ptr noundef writeonly captures(none) %0, ptr noundef readonly captures(none) %1, i16 noundef zeroext %2) local_unnamed_addr #4 {
  %calloc.i.i = tail call dereferenceable_or_null(352) ptr @calloc(i64 1, i64 352)
  %4 = icmp eq ptr %calloc.i.i, null
  br i1 %4, label %pmix_bfrops_base_tma_copy_pstats.exit, label %5, !prof !43

5:                                                ; preds = %3
  store ptr %calloc.i.i, ptr %0, align 8, !tbaa !228
  %6 = load ptr, ptr %1, align 8, !tbaa !166
  %.not.i.i = icmp eq ptr %6, null
  br i1 %.not.i.i, label %9, label %7

7:                                                ; preds = %5
  %8 = tail call noalias ptr @strdup(ptr noundef nonnull readonly %6) #23
  store ptr %8, ptr %calloc.i.i, align 8, !tbaa !166
  br label %9

9:                                                ; preds = %7, %5
  %10 = getelementptr inbounds nuw i8, ptr %calloc.i.i, i64 8
  %11 = getelementptr inbounds nuw i8, ptr %1, i64 8
  tail call void @llvm.memcpy.p0.p0.i64(ptr noundef nonnull align 8 dereferenceable(260) %10, ptr noundef nonnull readonly align 8 dereferenceable(260) %11, i64 260, i1 false)
  %12 = getelementptr inbounds nuw i8, ptr %1, i64 268
  %13 = load i32, ptr %12, align 4, !tbaa !170
  %14 = getelementptr inbounds nuw i8, ptr %calloc.i.i, i64 268
  store i32 %13, ptr %14, align 4, !tbaa !170
  %15 = getelementptr inbounds nuw i8, ptr %1, i64 272
  %16 = load ptr, ptr %15, align 8, !tbaa !171
  %.not35.i.i = icmp eq ptr %16, null
  br i1 %.not35.i.i, label %pmix_bfrops_base_tma_populate_pstats.exit.i, label %17

17:                                               ; preds = %9
  %18 = tail call noalias ptr @strdup(ptr noundef nonnull readonly %16) #23
  %19 = getelementptr inbounds nuw i8, ptr %calloc.i.i, i64 272
  store ptr %18, ptr %19, align 8, !tbaa !171
  br label %pmix_bfrops_base_tma_populate_pstats.exit.i

pmix_bfrops_base_tma_populate_pstats.exit.i:      ; preds = %17, %9
  %20 = getelementptr inbounds nuw i8, ptr %1, i64 280
  %21 = load i8, ptr %20, align 8, !tbaa !172
  %22 = getelementptr inbounds nuw i8, ptr %calloc.i.i, i64 280
  store i8 %21, ptr %22, align 8, !tbaa !172
  %23 = getelementptr inbounds nuw i8, ptr %calloc.i.i, i64 288
  %24 = getelementptr inbounds nuw i8, ptr %1, i64 288
  tail call void @llvm.memcpy.p0.p0.i64(ptr noundef nonnull align 8 dereferenceable(16) %23, ptr noundef nonnull readonly align 8 dereferenceable(16) %24, i64 16, i1 false), !tbaa.struct !173
  %25 = getelementptr inbounds nuw i8, ptr %1, i64 308
  %26 = load i32, ptr %25, align 4, !tbaa !175
  %27 = getelementptr inbounds nuw i8, ptr %calloc.i.i, i64 308
  store i32 %26, ptr %27, align 4, !tbaa !175
  %28 = getelementptr inbounds nuw i8, ptr %1, i64 312
  %29 = load i16, ptr %28, align 8, !tbaa !176
  %30 = getelementptr inbounds nuw i8, ptr %calloc.i.i, i64 312
  store i16 %29, ptr %30, align 8, !tbaa !176
  %31 = getelementptr inbounds nuw i8, ptr %1, i64 316
  %32 = load float, ptr %31, align 4, !tbaa !177
  %33 = getelementptr inbounds nuw i8, ptr %calloc.i.i, i64 316
  store float %32, ptr %33, align 4, !tbaa !177
  %34 = getelementptr inbounds nuw i8, ptr %1, i64 320
  %35 = load float, ptr %34, align 8, !tbaa !178
  %36 = getelementptr inbounds nuw i8, ptr %calloc.i.i, i64 320
  store float %35, ptr %36, align 8, !tbaa !178
  %37 = getelementptr inbounds nuw i8, ptr %1, i64 324
  %38 = load float, ptr %37, align 4, !tbaa !179
  %39 = getelementptr inbounds nuw i8, ptr %calloc.i.i, i64 324
  store float %38, ptr %39, align 4, !tbaa !179
  %40 = getelementptr inbounds nuw i8, ptr %1, i64 328
  %41 = load float, ptr %40, align 8, !tbaa !180
  %42 = getelementptr inbounds nuw i8, ptr %calloc.i.i, i64 328
  store float %41, ptr %42, align 8, !tbaa !180
  %43 = getelementptr inbounds nuw i8, ptr %1, i64 332
  %44 = load i16, ptr %43, align 4, !tbaa !181
  %45 = getelementptr inbounds nuw i8, ptr %calloc.i.i, i64 332
  store i16 %44, ptr %45, align 4, !tbaa !181
  %46 = getelementptr inbounds nuw i8, ptr %1, i64 336
  %47 = load i64, ptr %46, align 8, !tbaa !182
  %48 = getelementptr inbounds nuw i8, ptr %calloc.i.i, i64 336
  store i64 %47, ptr %48, align 8, !tbaa !182
  %49 = getelementptr inbounds nuw i8, ptr %1, i64 344
  %50 = load i64, ptr %49, align 8, !tbaa !183
  %51 = getelementptr inbounds nuw i8, ptr %calloc.i.i, i64 344
  store i64 %50, ptr %51, align 8, !tbaa !183
  br label %pmix_bfrops_base_tma_copy_pstats.exit

pmix_bfrops_base_tma_copy_pstats.exit:            ; preds = %3, %pmix_bfrops_base_tma_populate_pstats.exit.i
  %.0.i = phi i32 [ 0, %pmix_bfrops_base_tma_populate_pstats.exit.i ], [ -32, %3 ]
  ret i32 %.0.i
}